target datalayout = "e-m:e-p270:32:32-p271:32:32-p272:64:64-i64:64-i128:128-f80:128-n8:16:32:64-S128"
target triple = "x86_64-pc-linux-gnu"

%union.data_values = type { double }

; Function Attrs: nounwind uwtable
define i32 @tng_data_values_free(ptr noundef %0, ptr noundef %1, i64 noundef %2, i64 noundef %3, i8 noundef signext %4) #0 {
  %6 = alloca ptr, align 8
  %7 = alloca ptr, align 8
  %8 = alloca i64, align 8
  %9 = alloca i64, align 8
  %10 = alloca i8, align 1
  %11 = alloca i64, align 8
  %12 = alloca i64, align 8
  store ptr %0, ptr %6, align 8, !tbaa !3
  store ptr %1, ptr %7, align 8, !tbaa !355
  store i64 %2, ptr %8, align 8, !tbaa !26
  store i64 %3, ptr %9, align 8, !tbaa !26
  store i8 %4, ptr %10, align 1, !tbaa !23
  call void @llvm.lifetime.start.p0(i64 8, ptr %11) #11
  call void @llvm.lifetime.start.p0(i64 8, ptr %12) #11
  %13 = load ptr, ptr %7, align 8, !tbaa !355
  %14 = icmp ne ptr %13, null
  br i1 %14, label %15, label %77

15:                                               ; preds = %5
  store i64 0, ptr %11, align 8, !tbaa !26
  br label %16

16:                                               ; preds = %72, %15
  %17 = load i64, ptr %11, align 8, !tbaa !26
  %18 = load i64, ptr %8, align 8, !tbaa !26
  %19 = icmp slt i64 %17, %18
  br i1 %19, label %20, label %75

20:                                               ; preds = %16
  %21 = load ptr, ptr %7, align 8, !tbaa !355
  %22 = load i64, ptr %11, align 8, !tbaa !26
  %23 = getelementptr inbounds ptr, ptr %21, i64 %22
  %24 = load ptr, ptr %23, align 8, !tbaa !357
  %25 = icmp ne ptr %24, null
  br i1 %25, label %26, label %71

26:                                               ; preds = %20
  %27 = load i8, ptr %10, align 1, !tbaa !23
  %28 = sext i8 %27 to i32
  %29 = icmp eq i32 %28, 0
  br i1 %29, label %30, label %63

30:                                               ; preds = %26
  store i64 0, ptr %12, align 8, !tbaa !26
  br label %31

31:                                               ; preds = %59, %30
  %32 = load i64, ptr %12, align 8, !tbaa !26
  %33 = load i64, ptr %9, align 8, !tbaa !26
  %34 = icmp slt i64 %32, %33
  br i1 %34, label %35, label %62

35:                                               ; preds = %31
  %36 = load ptr, ptr %7, align 8, !tbaa !355
  %37 = load i64, ptr %11, align 8, !tbaa !26
  %38 = getelementptr inbounds ptr, ptr %36, i64 %37
  %39 = load ptr, ptr %38, align 8, !tbaa !357
  %40 = load i64, ptr %12, align 8, !tbaa !26
  %41 = getelementptr inbounds %union.data_values, ptr %39, i64 %40
  %42 = load ptr, ptr %41, align 8, !tbaa !23
  %43 = icmp ne ptr %42, null
  br i1 %43, label %44, label %58

44:                                               ; preds = %35
  %45 = load ptr, ptr %7, align 8, !tbaa !355
  %46 = load i64, ptr %11, align 8, !tbaa !26
  %47 = getelementptr inbounds ptr, ptr %45, i64 %46
  %48 = load ptr, ptr %47, align 8, !tbaa !357
  %49 = load i64, ptr %12, align 8, !tbaa !26
  %50 = getelementptr inbounds %union.data_values, ptr %48, i64 %49
  %51 = load ptr, ptr %50, align 8, !tbaa !23
  call void @free(ptr noundef %51) #11
  %52 = load ptr, ptr %7, align 8, !tbaa !355
  %53 = load i64, ptr %11, align 8, !tbaa !26
  %54 = getelementptr inbounds ptr, ptr %52, i64 %53
  %55 = load ptr, ptr %54, align 8, !tbaa !357
  %56 = load i64, ptr %12, align 8, !tbaa !26
  %57 = getelementptr inbounds %union.data_values, ptr %55, i64 %56
  store ptr null, ptr %57, align 8, !tbaa !23
  br label %58

58:                                               ; preds = %44, %35
  br label %59

59:                                               ; preds = %58
  %60 = load i64, ptr %12, align 8, !tbaa !26
  %61 = add nsw i64 %60, 1
  store i64 %61, ptr %12, align 8, !tbaa !26
  br label %31, !llvm.loop !359

62:                                               ; preds = %31
  br label %63

63:                                               ; preds = %62, %26
  %64 = load ptr, ptr %7, align 8, !tbaa !355
  %65 = load i64, ptr %11, align 8, !tbaa !26
  %66 = getelementptr inbounds ptr, ptr %64, i64 %65
  %67 = load ptr, ptr %66, align 8, !tbaa !357
  call void @free(ptr noundef %67) #11
  %68 = load ptr, ptr %7, align 8, !tbaa !355
  %69 = load i64, ptr %11, align 8, !tbaa !26
  %70 = getelementptr inbounds ptr, ptr %68, i64 %69
  store ptr null, ptr %70, align 8, !tbaa !357
  br label %71

71:                                               ; preds = %63, %20
  br label %72

72:                                               ; preds = %71
  %73 = load i64, ptr %11, align 8, !tbaa !26
  %74 = add nsw i64 %73, 1
  store i64 %74, ptr %11, align 8, !tbaa !26
  br label %16, !llvm.loop !360

75:                                               ; preds = %16
  %76 = load ptr, ptr %7, align 8, !tbaa !355
  call void @free(ptr noundef %76) #11
  store ptr null, ptr %7, align 8, !tbaa !355
  br label %77

77:                                               ; preds = %75, %5
  call void @llvm.lifetime.end.p0(i64 8, ptr %12) #11
  call void @llvm.lifetime.end.p0(i64 8, ptr %11) #11
  ret i32 0
}