; Function Attrs: nounwind uwtable
define noundef i32 @tng_data_values_free(ptr readnone captures(none) %0, ptr noundef %1, i64 noundef %2, i64 noundef %3, i8 noundef signext %4) local_unnamed_addr #4 {
  %.not = icmp eq ptr %1, null
  br i1 %.not, label %31, label %.preheader28

.preheader28:                                     ; preds = %5
  %6 = icmp sgt i64 %2, 0
  br i1 %6, label %.lr.ph31, label %._crit_edge

.lr.ph31:                                         ; preds = %.preheader28
  %7 = icmp eq i8 %4, 0
  br i1 %7, label %.lr.ph31.split.us, label %.lr.ph31.split

.lr.ph31.split.us:                                ; preds = %.lr.ph31
  %8 = icmp sgt i64 %3, 0
  br i1 %8, label %.lr.ph31.split.us.split.us, label %.lr.ph31.split.us.split

.lr.ph31.split.us.split.us:                       ; preds = %.lr.ph31.split.us, %19
  %.02330.us.us = phi i64 [ %20, %19 ], [ 0, %.lr.ph31.split.us ]
  %9 = getelementptr inbounds nuw ptr, ptr %1, i64 %.02330.us.us
  %10 = load ptr, ptr %9, align 8, !tbaa !338
  %.not26.us.us = icmp eq ptr %10, null
  br i1 %.not26.us.us, label %19, label %.preheader.us.us

.preheader.us.us:                                 ; preds = %.lr.ph31.split.us.split.us, %17
  %.029.us.us = phi i64 [ %18, %17 ], [ 0, %.lr.ph31.split.us.split.us ]
  %11 = load ptr, ptr %9, align 8, !tbaa !338
  %12 = getelementptr inbounds nuw %union.data_values, ptr %11, i64 %.029.us.us
  %13 = load ptr, ptr %12, align 8, !tbaa !13
  %.not27.us.us = icmp eq ptr %13, null
  br i1 %.not27.us.us, label %17, label %14

14:                                               ; preds = %.preheader.us.us
  tail call void @free(ptr noundef nonnull %13) #26
  %15 = load ptr, ptr %9, align 8, !tbaa !338
  %16 = getelementptr inbounds nuw %union.data_values, ptr %15, i64 %.029.us.us
  store ptr null, ptr %16, align 8, !tbaa !13
  br label %17

17:                                               ; preds = %14, %.preheader.us.us
  %18 = add nuw nsw i64 %.029.us.us, 1
  %exitcond35.not = icmp eq i64 %18, %3
  br i1 %exitcond35.not, label %..loopexit_crit_edge.us.us, label %.preheader.us.us, !llvm.loop !340

19:                                               ; preds = %..loopexit_crit_edge.us.us, %.lr.ph31.split.us.split.us
  %20 = add nuw nsw i64 %.02330.us.us, 1
  %exitcond36.not = icmp eq i64 %20, %2
  br i1 %exitcond36.not, label %._crit_edge, label %.lr.ph31.split.us.split.us, !llvm.loop !341

..loopexit_crit_edge.us.us:                       ; preds = %17
  %21 = load ptr, ptr %9, align 8, !tbaa !338
  tail call void @free(ptr noundef %21) #26
  store ptr null, ptr %9, align 8, !tbaa !338
  br label %19

.lr.ph31.split.us.split:                          ; preds = %.lr.ph31.split.us, %24
  %.02330.us = phi i64 [ %25, %24 ], [ 0, %.lr.ph31.split.us ]
  %22 = getelementptr inbounds nuw ptr, ptr %1, i64 %.02330.us
  %23 = load ptr, ptr %22, align 8, !tbaa !338
  %.not26.us = icmp eq ptr %23, null
  br i1 %.not26.us, label %24, label %.preheader.us

.preheader.us:                                    ; preds = %.lr.ph31.split.us.split
  tail call void @free(ptr noundef nonnull %23) #26
  store ptr null, ptr %22, align 8, !tbaa !338
  br label %24

24:                                               ; preds = %.preheader.us, %.lr.ph31.split.us.split
  %25 = add nuw nsw i64 %.02330.us, 1
  %exitcond34.not = icmp eq i64 %25, %2
  br i1 %exitcond34.not, label %._crit_edge, label %.lr.ph31.split.us.split, !llvm.loop !341

.lr.ph31.split:                                   ; preds = %.lr.ph31, %29
  %.02330 = phi i64 [ %30, %29 ], [ 0, %.lr.ph31 ]
  %26 = getelementptr inbounds nuw ptr, ptr %1, i64 %.02330
  %27 = load ptr, ptr %26, align 8, !tbaa !338
  %.not26 = icmp eq ptr %27, null
  br i1 %.not26, label %29, label %28

28:                                               ; preds = %.lr.ph31.split
  tail call void @free(ptr noundef nonnull %27) #26
  store ptr null, ptr %26, align 8, !tbaa !338
  br label %29

29:                                               ; preds = %.lr.ph31.split, %28
  %30 = add nuw nsw i64 %.02330, 1
  %exitcond.not = icmp eq i64 %30, %2
  br i1 %exitcond.not, label %._crit_edge, label %.lr.ph31.split, !llvm.loop !341

._crit_edge:                                      ; preds = %29, %24, %19, %.preheader28
  tail call void @free(ptr noundef nonnull %1) #26
  br label %31

31:                                               ; preds = %._crit_edge, %5
  ret i32 0
}